TN:tests_test_postgres
SF:/Project/lib/include/objects.hpp
end_of_record
SF:/Project/lib/src/authorizetion_connector.cpp
FN:3,_ZN22AuthorizationConnector14create_profileE7Profile
FNDA:1,_ZN22AuthorizationConnector14create_profileE7Profile
FN:8,_ZN22AuthorizationConnector18existence_nicknameENSt7__cxx1112basic_stringIcSt11char_traitsIcESaIcEEE
FNDA:1,_ZN22AuthorizationConnector18existence_nicknameENSt7__cxx1112basic_stringIcSt11char_traitsIcESaIcEEE
FN:11,_ZN22AuthorizationConnector15existence_emailENSt7__cxx1112basic_stringIcSt11char_traitsIcESaIcEEE
FNDA:1,_ZN22AuthorizationConnector15existence_emailENSt7__cxx1112basic_stringIcSt11char_traitsIcESaIcEEE
FN:16,_ZN22AuthorizationConnector16get_profile_dataEm
FNDA:1,_ZN22AuthorizationConnector16get_profile_dataEm
FN:21,_ZN22AuthorizationConnector15update_nicknameEmNSt7__cxx1112basic_stringIcSt11char_traitsIcESaIcEEE
FNDA:1,_ZN22AuthorizationConnector15update_nicknameEmNSt7__cxx1112basic_stringIcSt11char_traitsIcESaIcEEE
FN:23,_ZN22AuthorizationConnector12update_emailEmNSt7__cxx1112basic_stringIcSt11char_traitsIcESaIcEEE
FNDA:1,_ZN22AuthorizationConnector12update_emailEmNSt7__cxx1112basic_stringIcSt11char_traitsIcESaIcEEE
FN:25,_ZN22AuthorizationConnector15update_passwordEmNSt7__cxx1112basic_stringIcSt11char_traitsIcESaIcEEE
FNDA:1,_ZN22AuthorizationConnector15update_passwordEmNSt7__cxx1112basic_stringIcSt11char_traitsIcESaIcEEE
FN:27,_ZN22AuthorizationConnector18update_descriptionEmNSt7__cxx1112basic_stringIcSt11char_traitsIcESaIcEEE
FNDA:1,_ZN22AuthorizationConnector18update_descriptionEmNSt7__cxx1112basic_stringIcSt11char_traitsIcESaIcEEE
FN:30,_ZN22AuthorizationConnector14check_passwordEmNSt7__cxx1112basic_stringIcSt11char_traitsIcESaIcEEE
FNDA:1,_ZN22AuthorizationConnector14check_passwordEmNSt7__cxx1112basic_stringIcSt11char_traitsIcESaIcEEE
FN:35,_ZN22AuthorizationConnector14delete_profileEm
FNDA:1,_ZN22AuthorizationConnector14delete_profileEm
FN:37,_ZN22AuthorizationConnector12create_tokenEm
FNDA:1,_ZN22AuthorizationConnector12create_tokenEm
FN:38,_ZN22AuthorizationConnector12delete_tokenEm
FNDA:1,_ZN22AuthorizationConnector12delete_tokenEm
FN:39,_ZN22AuthorizationConnector15is_actual_tokenEm
FNDA:1,_ZN22AuthorizationConnector15is_actual_tokenEm
DA:3,1
DA:4,1
DA:5,1
DA:8,1
DA:9,1
DA:11,1
DA:12,1
DA:16,1
DA:17,1
DA:18,1
DA:21,1
DA:22,1
DA:23,1
DA:24,1
DA:25,1
DA:26,1
DA:27,1
DA:28,1
DA:30,1
DA:32,1
DA:35,1
DA:37,1
DA:38,1
DA:39,1
DA:40,1
end_of_record
TN:tests_test_postgres
SF:/Project/lib/include/authorization_connector.hpp
end_of_record
SF:/Project/lib/include/event_connector.hpp
end_of_record
SF:/Project/lib/interface/ievent_connector.hpp
end_of_record
SF:/Project/lib/interface/iauthorization_connector.hpp
end_of_record
SF:/Project/lib/src/connector.cpp
FN:3,_ZN9ConnectorC2Ev
FNDA:26,_ZN9ConnectorC2Ev
FN:6,_ZN9ConnectorD2Ev
FNDA:26,_ZN9ConnectorD2Ev
DA:3,26
DA:4,26
DA:6,26
DA:7,26
DA:8,26
DA:9,26
end_of_record
TN:tests_test_postgres
SF:/Project/lib/src/event_connector.cpp
FN:3,_ZN14EventConnector12create_eventE5Event
FNDA:1,_ZN14EventConnector12create_eventE5Event
FN:8,_ZN14EventConnector12update_titleEmNSt7__cxx1112basic_stringIcSt11char_traitsIcESaIcEEE
FNDA:1,_ZN14EventConnector12update_titleEmNSt7__cxx1112basic_stringIcSt11char_traitsIcESaIcEEE
FN:10,_ZN14EventConnector18update_descriptionEmNSt7__cxx1112basic_stringIcSt11char_traitsIcESaIcEEE
FNDA:1,_ZN14EventConnector18update_descriptionEmNSt7__cxx1112basic_stringIcSt11char_traitsIcESaIcEEE
FN:12,_ZN14EventConnector16update_date_timeEmNSt7__cxx1112basic_stringIcSt11char_traitsIcESaIcEEE
FNDA:1,_ZN14EventConnector16update_date_timeEmNSt7__cxx1112basic_stringIcSt11char_traitsIcESaIcEEE
FN:14,_ZN14EventConnector19update_max_visitorsEmm
FNDA:1,_ZN14EventConnector19update_max_visitorsEmm
FN:16,_ZN14EventConnector14update_addressEmNSt7__cxx1112basic_stringIcSt11char_traitsIcESaIcEEE
FNDA:1,_ZN14EventConnector14update_addressEmNSt7__cxx1112basic_stringIcSt11char_traitsIcESaIcEEE
FN:19,_ZN14EventConnector11add_visitorEmm
FNDA:1,_ZN14EventConnector11add_visitorEmm
FN:21,_ZN14EventConnector14delete_visitorEmm
FNDA:1,_ZN14EventConnector14delete_visitorEmm
FN:22,_ZN14EventConnector12delete_eventEm
FNDA:1,_ZN14EventConnector12delete_eventEm
FN:24,_ZN14EventConnector14get_event_dataEm
FNDA:1,_ZN14EventConnector14get_event_dataEm
FN:29,_ZN14EventConnector29get_visited_events_by_profileEm
FNDA:1,_ZN14EventConnector29get_visited_events_by_profileEm
FN:32,_ZN14EventConnector31get_organized_events_by_profileEm
FNDA:1,_ZN14EventConnector31get_organized_events_by_profileEm
FN:36,_ZN14EventConnector21get_visitors_by_eventEm
FNDA:1,_ZN14EventConnector21get_visitors_by_eventEm
DA:3,1
DA:4,1
DA:5,1
DA:8,1
DA:9,1
DA:10,1
DA:11,1
DA:12,1
DA:13,1
DA:14,1
DA:15,1
DA:16,1
DA:17,1
DA:19,1
DA:21,1
DA:22,1
DA:24,1
DA:25,1
DA:26,1
DA:29,1
DA:30,1
DA:32,1
DA:33,1
DA:36,1
DA:37,1
end_of_record
SF:/Project/lib/include/objects.hpp
end_of_record
